; Function Attrs: mustprogress nounwind uwtable
define hidden void @_ZN15ClassLoaderData13remove_handleE9OopHandle(ptr nocapture noundef nonnull readnone align 8 dereferenceable(160) %0, ptr nocapture noundef readonly %1) local_unnamed_addr #0 align 2 {
  %3 = load ptr, ptr %1, align 8
  %4 = icmp eq ptr %3, null
  br i1 %4, label %7, label %5

5:                                                ; preds = %2
  %6 = load ptr, ptr @_ZN14AccessInternal15RuntimeDispatchILm548932EP7oopDescLNS_11BarrierTypeE0EE11_store_funcE, align 8
  tail call void %6(ptr noundef nonnull %3, ptr noundef null) #16
  br label %7

7:                                                ; preds = %5, %2
  ret void
}